target datalayout = "e-m:e-p270:32:32-p271:32:32-p272:64:64-i64:64-i128:128-f80:128-n8:16:32:64-S128"
target triple = "x86_64-pc-linux-gnu"

; Function Attrs: mustprogress nounwind uwtable
define internal noundef i32 @_ZN4llvmL15getXRegFromWRegEj(i32 noundef %0) #0 {
  %2 = alloca i32, align 4
  %3 = alloca i32, align 4
  store i32 %0, ptr %3, align 4
  %4 = load i32, ptr %3, align 4
  switch i32 %4, label %38 [
    i32 206, label %5
    i32 207, label %6
    i32 208, label %7
    i32 209, label %8
    i32 210, label %9
    i32 211, label %10
    i32 212, label %11
    i32 213, label %12
    i32 214, label %13
    i32 215, label %14
    i32 216, label %15
    i32 217, label %16
    i32 218, label %17
    i32 219, label %18
    i32 220, label %19
    i32 221, label %20
    i32 222, label %21
    i32 223, label %22
    i32 224, label %23
    i32 225, label %24
    i32 226, label %25
    i32 227, label %26
    i32 228, label %27
    i32 229, label %28
    i32 230, label %29
    i32 231, label %30
    i32 232, label %31
    i32 233, label %32
    i32 234, label %33
    i32 235, label %34
    i32 236, label %35
    i32 10, label %36
    i32 11, label %37
  ]

5:                                                ; preds = %1
  store i32 237, ptr %2, align 4
  br label %40

6:                                                ; preds = %1
  store i32 238, ptr %2, align 4
  br label %40

7:                                                ; preds = %1
  store i32 239, ptr %2, align 4
  br label %40

8:                                                ; preds = %1
  store i32 240, ptr %2, align 4
  br label %40

9:                                                ; preds = %1
  store i32 241, ptr %2, align 4
  br label %40

10:                                               ; preds = %1
  store i32 242, ptr %2, align 4
  br label %40

11:                                               ; preds = %1
  store i32 243, ptr %2, align 4
  br label %40

12:                                               ; preds = %1
  store i32 244, ptr %2, align 4
  br label %40

13:                                               ; preds = %1
  store i32 245, ptr %2, align 4
  br label %40

14:                                               ; preds = %1
  store i32 246, ptr %2, align 4
  br label %40

15:                                               ; preds = %1
  store i32 247, ptr %2, align 4
  br label %40

16:                                               ; preds = %1
  store i32 248, ptr %2, align 4
  br label %40

17:                                               ; preds = %1
  store i32 249, ptr %2, align 4
  br label %40

18:                                               ; preds = %1
  store i32 250, ptr %2, align 4
  br label %40

19:                                               ; preds = %1
  store i32 251, ptr %2, align 4
  br label %40

20:                                               ; preds = %1
  store i32 252, ptr %2, align 4
  br label %40

21:                                               ; preds = %1
  store i32 253, ptr %2, align 4
  br label %40

22:                                               ; preds = %1
  store i32 254, ptr %2, align 4
  br label %40

23:                                               ; preds = %1
  store i32 255, ptr %2, align 4
  br label %40

24:                                               ; preds = %1
  store i32 256, ptr %2, align 4
  br label %40

25:                                               ; preds = %1
  store i32 257, ptr %2, align 4
  br label %40

26:                                               ; preds = %1
  store i32 258, ptr %2, align 4
  br label %40

27:                                               ; preds = %1
  store i32 259, ptr %2, align 4
  br label %40

28:                                               ; preds = %1
  store i32 260, ptr %2, align 4
  br label %40

29:                                               ; preds = %1
  store i32 261, ptr %2, align 4
  br label %40

30:                                               ; preds = %1
  store i32 262, ptr %2, align 4
  br label %40

31:                                               ; preds = %1
  store i32 263, ptr %2, align 4
  br label %40

32:                                               ; preds = %1
  store i32 264, ptr %2, align 4
  br label %40

33:                                               ; preds = %1
  store i32 265, ptr %2, align 4
  br label %40

34:                                               ; preds = %1
  store i32 2, ptr %2, align 4
  br label %40

35:                                               ; preds = %1
  store i32 6, ptr %2, align 4
  br label %40

36:                                               ; preds = %1
  store i32 8, ptr %2, align 4
  br label %40

37:                                               ; preds = %1
  store i32 12, ptr %2, align 4
  br label %40

38:                                               ; preds = %1
  %39 = load i32, ptr %3, align 4
  store i32 %39, ptr %2, align 4
  br label %40

40:                                               ; preds = %38, %37, %36, %35, %34, %33, %32, %31, %30, %29, %28, %27, %26, %25, %24, %23, %22, %21, %20, %19, %18, %17, %16, %15, %14, %13, %12, %11, %10, %9, %8, %7, %6, %5
  %41 = load i32, ptr %2, align 4
  ret i32 %41
}