; Function Attrs: mustprogress nofree norecurse nosync nounwind willreturn memory(none) uwtable
define internal fastcc noundef i32 @_ZN4llvmL15getXRegFromWRegEj(i32 noundef %0) unnamed_addr #2 {
  switch i32 %0, label %34 [
    i32 206, label %35
    i32 207, label %2
    i32 208, label %3
    i32 209, label %4
    i32 210, label %5
    i32 211, label %6
    i32 212, label %7
    i32 213, label %8
    i32 214, label %9
    i32 215, label %10
    i32 216, label %11
    i32 217, label %12
    i32 218, label %13
    i32 219, label %14
    i32 220, label %15
    i32 221, label %16
    i32 222, label %17
    i32 223, label %18
    i32 224, label %19
    i32 225, label %20
    i32 226, label %21
    i32 227, label %22
    i32 228, label %23
    i32 229, label %24
    i32 230, label %25
    i32 231, label %26
    i32 232, label %27
    i32 233, label %28
    i32 234, label %29
    i32 235, label %30
    i32 236, label %31
    i32 10, label %32
    i32 11, label %33
  ]

2:                                                ; preds = %1
  br label %35

3:                                                ; preds = %1
  br label %35

4:                                                ; preds = %1
  br label %35

5:                                                ; preds = %1
  br label %35

6:                                                ; preds = %1
  br label %35

7:                                                ; preds = %1
  br label %35

8:                                                ; preds = %1
  br label %35

9:                                                ; preds = %1
  br label %35

10:                                               ; preds = %1
  br label %35

11:                                               ; preds = %1
  br label %35

12:                                               ; preds = %1
  br label %35

13:                                               ; preds = %1
  br label %35

14:                                               ; preds = %1
  br label %35

15:                                               ; preds = %1
  br label %35

16:                                               ; preds = %1
  br label %35

17:                                               ; preds = %1
  br label %35

18:                                               ; preds = %1
  br label %35

19:                                               ; preds = %1
  br label %35

20:                                               ; preds = %1
  br label %35

21:                                               ; preds = %1
  br label %35

22:                                               ; preds = %1
  br label %35

23:                                               ; preds = %1
  br label %35

24:                                               ; preds = %1
  br label %35

25:                                               ; preds = %1
  br label %35

26:                                               ; preds = %1
  br label %35

27:                                               ; preds = %1
  br label %35

28:                                               ; preds = %1
  br label %35

29:                                               ; preds = %1
  br label %35

30:                                               ; preds = %1
  br label %35

31:                                               ; preds = %1
  br label %35

32:                                               ; preds = %1
  br label %35

33:                                               ; preds = %1
  br label %35

34:                                               ; preds = %1
  br label %35

35:                                               ; preds = %1, %34, %33, %32, %31, %30, %29, %28, %27, %26, %25, %24, %23, %22, %21, %20, %19, %18, %17, %16, %15, %14, %13, %12, %11, %10, %9, %8, %7, %6, %5, %4, %3, %2
  %.0 = phi i32 [ %0, %34 ], [ 12, %33 ], [ 8, %32 ], [ 6, %31 ], [ 2, %30 ], [ 265, %29 ], [ 264, %28 ], [ 263, %27 ], [ 262, %26 ], [ 261, %25 ], [ 260, %24 ], [ 259, %23 ], [ 258, %22 ], [ 257, %21 ], [ 256, %20 ], [ 255, %19 ], [ 254, %18 ], [ 253, %17 ], [ 252, %16 ], [ 251, %15 ], [ 250, %14 ], [ 249, %13 ], [ 248, %12 ], [ 247, %11 ], [ 246, %10 ], [ 245, %9 ], [ 244, %8 ], [ 243, %7 ], [ 242, %6 ], [ 241, %5 ], [ 240, %4 ], [ 239, %3 ], [ 238, %2 ], [ 237, %1 ]
  ret i32 %.0
}